; ModuleID = '48/422.c'
source_filename = "48/422.c"
target datalayout = "e-m:e-p270:32:32-p271:32:32-p272:64:64-i64:64-f80:128-n8:16:32:64-S128"
target triple = "x86_64-pc-linux-gnu"

@.str = private unnamed_addr constant [6 x i8] c"%d %d\00", align 1
@.str.1 = private unnamed_addr constant [3 x i8] c"%d\00", align 1
@.str.2 = private unnamed_addr constant [2 x i8] c" \00", align 1
@.str.3 = private unnamed_addr constant [2 x i8] c"\0A\00", align 1

; Function Attrs: noinline nounwind uwtable
define dso_local i32 @main() #0 {
  %1 = alloca i32, align 4
  %2 = alloca [5 x [81 x i32]], align 16
  %3 = alloca i32, align 4
  %4 = alloca i32, align 4
  %5 = alloca i32, align 4
  %6 = alloca i32, align 4
  %7 = alloca i32, align 4
  %8 = alloca i32, align 4
  store i32 0, i32* %1, align 4
  %9 = call i32 (i8*, ...) @__isoc99_scanf(i8* getelementptr inbounds ([6 x i8], [6 x i8]* @.str, i64 0, i64 0), i32* %3, i32* %4)
  store i32 0, i32* %5, align 4
  br label %10

10:                                               ; preds = %29, %0
  %11 = load i32, i32* %5, align 4
  %12 = load i32, i32* %4, align 4
  %13 = icmp sle i32 %11, %12
  br i1 %13, label %14, label %32

14:                                               ; preds = %10
  store i32 0, i32* %6, align 4
  br label %15

15:                                               ; preds = %25, %14
  %16 = load i32, i32* %6, align 4
  %17 = icmp slt i32 %16, 81
  br i1 %17, label %18, label %28

18:                                               ; preds = %15
  %19 = load i32, i32* %5, align 4
  %20 = sext i32 %19 to i64
  %21 = getelementptr inbounds [5 x [81 x i32]], [5 x [81 x i32]]* %2, i64 0, i64 %20
  %22 = load i32, i32* %6, align 4
  %23 = sext i32 %22 to i64
  %24 = getelementptr inbounds [81 x i32], [81 x i32]* %21, i64 0, i64 %23
  store i32 0, i32* %24, align 4
  br label %25

25:                                               ; preds = %18
  %26 = load i32, i32* %6, align 4
  %27 = add nsw i32 %26, 1
  store i32 %27, i32* %6, align 4
  br label %15

28:                                               ; preds = %15
  br label %29

29:                                               ; preds = %28
  %30 = load i32, i32* %5, align 4
  %31 = add nsw i32 %30, 1
  store i32 %31, i32* %5, align 4
  br label %10

32:                                               ; preds = %10
  %33 = load i32, i32* %3, align 4
  %34 = getelementptr inbounds [5 x [81 x i32]], [5 x [81 x i32]]* %2, i64 0, i64 0
  %35 = getelementptr inbounds [81 x i32], [81 x i32]* %34, i64 0, i64 40
  store i32 %33, i32* %35, align 16
  store i32 0, i32* %7, align 4
  br label %36

36:                                               ; preds = %155, %32
  %37 = load i32, i32* %7, align 4
  %38 = load i32, i32* %4, align 4
  %39 = icmp slt i32 %37, %38
  br i1 %39, label %40, label %158

40:                                               ; preds = %36
  store i32 0, i32* %5, align 4
  br label %41

41:                                               ; preds = %151, %40
  %42 = load i32, i32* %5, align 4
  %43 = icmp slt i32 %42, 81
  br i1 %43, label %44, label %154

44:                                               ; preds = %41
  %45 = load i32, i32* %7, align 4
  %46 = sext i32 %45 to i64
  %47 = getelementptr inbounds [5 x [81 x i32]], [5 x [81 x i32]]* %2, i64 0, i64 %46
  %48 = load i32, i32* %5, align 4
  %49 = sext i32 %48 to i64
  %50 = getelementptr inbounds [81 x i32], [81 x i32]* %47, i64 0, i64 %49
  %51 = load i32, i32* %50, align 4
  store i32 %51, i32* %8, align 4
  %52 = load i32, i32* %8, align 4
  %53 = mul nsw i32 2, %52
  %54 = load i32, i32* %7, align 4
  %55 = add nsw i32 %54, 1
  %56 = sext i32 %55 to i64
  %57 = getelementptr inbounds [5 x [81 x i32]], [5 x [81 x i32]]* %2, i64 0, i64 %56
  %58 = load i32, i32* %5, align 4
  %59 = sext i32 %58 to i64
  %60 = getelementptr inbounds [81 x i32], [81 x i32]* %57, i64 0, i64 %59
  %61 = load i32, i32* %60, align 4
  %62 = add nsw i32 %61, %53
  store i32 %62, i32* %60, align 4
  %63 = load i32, i32* %8, align 4
  %64 = load i32, i32* %7, align 4
  %65 = add nsw i32 %64, 1
  %66 = sext i32 %65 to i64
  %67 = getelementptr inbounds [5 x [81 x i32]], [5 x [81 x i32]]* %2, i64 0, i64 %66
  %68 = load i32, i32* %5, align 4
  %69 = sub nsw i32 %68, 1
  %70 = sext i32 %69 to i64
  %71 = getelementptr inbounds [81 x i32], [81 x i32]* %67, i64 0, i64 %70
  %72 = load i32, i32* %71, align 4
  %73 = add nsw i32 %72, %63
  store i32 %73, i32* %71, align 4
  %74 = load i32, i32* %8, align 4
  %75 = load i32, i32* %7, align 4
  %76 = add nsw i32 %75, 1
  %77 = sext i32 %76 to i64
  %78 = getelementptr inbounds [5 x [81 x i32]], [5 x [81 x i32]]* %2, i64 0, i64 %77
  %79 = load i32, i32* %5, align 4
  %80 = add nsw i32 %79, 1
  %81 = sext i32 %80 to i64
  %82 = getelementptr inbounds [81 x i32], [81 x i32]* %78, i64 0, i64 %81
  %83 = load i32, i32* %82, align 4
  %84 = add nsw i32 %83, %74
  store i32 %84, i32* %82, align 4
  %85 = load i32, i32* %8, align 4
  %86 = load i32, i32* %7, align 4
  %87 = add nsw i32 %86, 1
  %88 = sext i32 %87 to i64
  %89 = getelementptr inbounds [5 x [81 x i32]], [5 x [81 x i32]]* %2, i64 0, i64 %88
  %90 = load i32, i32* %5, align 4
  %91 = sub nsw i32 %90, 8
  %92 = sext i32 %91 to i64
  %93 = getelementptr inbounds [81 x i32], [81 x i32]* %89, i64 0, i64 %92
  %94 = load i32, i32* %93, align 4
  %95 = add nsw i32 %94, %85
  store i32 %95, i32* %93, align 4
  %96 = load i32, i32* %8, align 4
  %97 = load i32, i32* %7, align 4
  %98 = add nsw i32 %97, 1
  %99 = sext i32 %98 to i64
  %100 = getelementptr inbounds [5 x [81 x i32]], [5 x [81 x i32]]* %2, i64 0, i64 %99
  %101 = load i32, i32* %5, align 4
  %102 = sub nsw i32 %101, 9
  %103 = sext i32 %102 to i64
  %104 = getelementptr inbounds [81 x i32], [81 x i32]* %100, i64 0, i64 %103
  %105 = load i32, i32* %104, align 4
  %106 = add nsw i32 %105, %96
  store i32 %106, i32* %104, align 4
  %107 = load i32, i32* %8, align 4
  %108 = load i32, i32* %7, align 4
  %109 = add nsw i32 %108, 1
  %110 = sext i32 %109 to i64
  %111 = getelementptr inbounds [5 x [81 x i32]], [5 x [81 x i32]]* %2, i64 0, i64 %110
  %112 = load i32, i32* %5, align 4
  %113 = sub nsw i32 %112, 10
  %114 = sext i32 %113 to i64
  %115 = getelementptr inbounds [81 x i32], [81 x i32]* %111, i64 0, i64 %114
  %116 = load i32, i32* %115, align 4
  %117 = add nsw i32 %116, %107
  store i32 %117, i32* %115, align 4
  %118 = load i32, i32* %8, align 4
  %119 = load i32, i32* %7, align 4
  %120 = add nsw i32 %119, 1
  %121 = sext i32 %120 to i64
  %122 = getelementptr inbounds [5 x [81 x i32]], [5 x [81 x i32]]* %2, i64 0, i64 %121
  %123 = load i32, i32* %5, align 4
  %124 = add nsw i32 %123, 8
  %125 = sext i32 %124 to i64
  %126 = getelementptr inbounds [81 x i32], [81 x i32]* %122, i64 0, i64 %125
  %127 = load i32, i32* %126, align 4
  %128 = add nsw i32 %127, %118
  store i32 %128, i32* %126, align 4
  %129 = load i32, i32* %8, align 4
  %130 = load i32, i32* %7, align 4
  %131 = add nsw i32 %130, 1
  %132 = sext i32 %131 to i64
  %133 = getelementptr inbounds [5 x [81 x i32]], [5 x [81 x i32]]* %2, i64 0, i64 %132
  %134 = load i32, i32* %5, align 4
  %135 = add nsw i32 %134, 9
  %136 = sext i32 %135 to i64
  %137 = getelementptr inbounds [81 x i32], [81 x i32]* %133, i64 0, i64 %136
  %138 = load i32, i32* %137, align 4
  %139 = add nsw i32 %138, %129
  store i32 %139, i32* %137, align 4
  %140 = load i32, i32* %8, align 4
  %141 = load i32, i32* %7, align 4
  %142 = add nsw i32 %141, 1
  %143 = sext i32 %142 to i64
  %144 = getelementptr inbounds [5 x [81 x i32]], [5 x [81 x i32]]* %2, i64 0, i64 %143
  %145 = load i32, i32* %5, align 4
  %146 = add nsw i32 %145, 10
  %147 = sext i32 %146 to i64
  %148 = getelementptr inbounds [81 x i32], [81 x i32]* %144, i64 0, i64 %147
  %149 = load i32, i32* %148, align 4
  %150 = add nsw i32 %149, %140
  store i32 %150, i32* %148, align 4
  br label %151

151:                                              ; preds = %44
  %152 = load i32, i32* %5, align 4
  %153 = add nsw i32 %152, 1
  store i32 %153, i32* %5, align 4
  br label %41

154:                                              ; preds = %41
  br label %155

155:                                              ; preds = %154
  %156 = load i32, i32* %7, align 4
  %157 = add nsw i32 %156, 1
  store i32 %157, i32* %7, align 4
  br label %36

158:                                              ; preds = %36
  store i32 0, i32* %5, align 4
  br label %159

159:                                              ; preds = %189, %158
  %160 = load i32, i32* %5, align 4
  %161 = icmp slt i32 %160, 9
  br i1 %161, label %162, label %192

162:                                              ; preds = %159
  store i32 0, i32* %6, align 4
  br label %163

163:                                              ; preds = %185, %162
  %164 = load i32, i32* %6, align 4
  %165 = icmp slt i32 %164, 9
  br i1 %165, label %166, label %188

166:                                              ; preds = %163
  %167 = load i32, i32* %4, align 4
  %168 = sext i32 %167 to i64
  %169 = getelementptr inbounds [5 x [81 x i32]], [5 x [81 x i32]]* %2, i64 0, i64 %168
  %170 = load i32, i32* %5, align 4
  %171 = mul nsw i32 %170, 9
  %172 = load i32, i32* %6, align 4
  %173 = add nsw i32 %171, %172
  %174 = sext i32 %173 to i64
  %175 = getelementptr inbounds [81 x i32], [81 x i32]* %169, i64 0, i64 %174
  %176 = load i32, i32* %175, align 4
  %177 = call i32 (i8*, ...) @printf(i8* getelementptr inbounds ([3 x i8], [3 x i8]* @.str.1, i64 0, i64 0), i32 %176)
  %178 = load i32, i32* %6, align 4
  %179 = icmp slt i32 %178, 8
  br i1 %179, label %180, label %182

180:                                              ; preds = %166
  %181 = call i32 (i8*, ...) @printf(i8* getelementptr inbounds ([2 x i8], [2 x i8]* @.str.2, i64 0, i64 0))
  br label %184

182:                                              ; preds = %166
  %183 = call i32 (i8*, ...) @printf(i8* getelementptr inbounds ([2 x i8], [2 x i8]* @.str.3, i64 0, i64 0))
  br label %184

184:                                              ; preds = %182, %180
  br label %185

185:                                              ; preds = %184
  %186 = load i32, i32* %6, align 4
  %187 = add nsw i32 %186, 1
  store i32 %187, i32* %6, align 4
  br label %163

188:                                              ; preds = %163
  br label %189

189:                                              ; preds = %188
  %190 = load i32, i32* %5, align 4
  %191 = add nsw i32 %190, 1
  store i32 %191, i32* %5, align 4
  br label %159

192:                                              ; preds = %159
  %193 = load i32, i32* %1, align 4
  ret i32 %193
}

declare dso_local i32 @__isoc99_scanf(i8*, ...) #1

declare dso_local i32 @printf(i8*, ...) #1


!llvm.module.flags = !{!0}
!llvm.ident = !{!1}

!0 = !{i32 1, !"wchar_size", i32 4}
!1 = !{!"clang version 10.0.0-4ubuntu1 "}
